target datalayout = "e-m:e-p270:32:32-p271:32:32-p272:64:64-i64:64-i128:128-f80:128-n8:16:32:64-S128"
target triple = "x86_64-pc-linux-gnu"

%struct.FrameRectangle = type { i32, i32, i32, i32 }
%struct.WebPPicture = type { i32, i32, i32, i32, ptr, ptr, ptr, i32, i32, ptr, i32, [2 x i32], ptr, i32, [3 x i32], ptr, ptr, i32, ptr, ptr, i32, ptr, ptr, [3 x i32], ptr, ptr, [8 x i32], ptr, ptr, [2 x ptr] }

; Function Attrs: nounwind uwtable
define internal void @ClearRectangle(ptr noundef %0, i32 noundef %1, i32 noundef %2, i32 noundef %3, i32 noundef %4) #0 {
  %6 = alloca ptr, align 8
  %7 = alloca i32, align 4
  %8 = alloca i32, align 4
  %9 = alloca i32, align 4
  %10 = alloca i32, align 4
  %11 = alloca i32, align 4
  %12 = alloca ptr, align 8
  %13 = alloca i32, align 4
  store ptr %0, ptr %6, align 8, !tbaa !51
  store i32 %1, ptr %7, align 4, !tbaa !8
  store i32 %2, ptr %8, align 4, !tbaa !8
  store i32 %3, ptr %9, align 4, !tbaa !8
  store i32 %4, ptr %10, align 4, !tbaa !8
  call void @llvm.lifetime.start.p0(i64 4, ptr %11) #8
  %14 = load i32, ptr %8, align 4, !tbaa !8
  store i32 %14, ptr %11, align 4, !tbaa !8
  br label %15

15:                                               ; preds = %48, %5
  %16 = load i32, ptr %11, align 4, !tbaa !8
  %17 = load i32, ptr %8, align 4, !tbaa !8
  %18 = load i32, ptr %10, align 4, !tbaa !8
  %19 = add nsw i32 %17, %18
  %20 = icmp slt i32 %16, %19
  br i1 %20, label %21, label %51

21:                                               ; preds = %15
  call void @llvm.lifetime.start.p0(i64 8, ptr %12) #8
  %22 = load ptr, ptr %6, align 8, !tbaa !51
  %23 = getelementptr inbounds nuw %struct.WebPPicture, ptr %22, i32 0, i32 12
  %24 = load ptr, ptr %23, align 8, !tbaa !70
  %25 = load i32, ptr %11, align 4, !tbaa !8
  %26 = load ptr, ptr %6, align 8, !tbaa !51
  %27 = getelementptr inbounds nuw %struct.WebPPicture, ptr %26, i32 0, i32 13
  %28 = load i32, ptr %27, align 8, !tbaa !71
  %29 = mul nsw i32 %25, %28
  %30 = sext i32 %29 to i64
  %31 = getelementptr inbounds i32, ptr %24, i64 %30
  store ptr %31, ptr %12, align 8, !tbaa !68
  call void @llvm.lifetime.start.p0(i64 4, ptr %13) #8
  %32 = load i32, ptr %7, align 4, !tbaa !8
  store i32 %32, ptr %13, align 4, !tbaa !8
  br label %33

33:                                               ; preds = %44, %21
  %34 = load i32, ptr %13, align 4, !tbaa !8
  %35 = load i32, ptr %7, align 4, !tbaa !8
  %36 = load i32, ptr %9, align 4, !tbaa !8
  %37 = add nsw i32 %35, %36
  %38 = icmp slt i32 %34, %37
  br i1 %38, label %39, label %47

39:                                               ; preds = %33
  %40 = load ptr, ptr %12, align 8, !tbaa !68
  %41 = load i32, ptr %13, align 4, !tbaa !8
  %42 = sext i32 %41 to i64
  %43 = getelementptr inbounds i32, ptr %40, i64 %42
  store i32 0, ptr %43, align 4, !tbaa !8
  br label %44

44:                                               ; preds = %39
  %45 = load i32, ptr %13, align 4, !tbaa !8
  %46 = add nsw i32 %45, 1
  store i32 %46, ptr %13, align 4, !tbaa !8
  br label %33, !llvm.loop !123

47:                                               ; preds = %33
  call void @llvm.lifetime.end.p0(i64 4, ptr %13) #8
  call void @llvm.lifetime.end.p0(i64 8, ptr %12) #8
  br label %48

48:                                               ; preds = %47
  %49 = load i32, ptr %11, align 4, !tbaa !8
  %50 = add nsw i32 %49, 1
  store i32 %50, ptr %11, align 4, !tbaa !8
  br label %15, !llvm.loop !124

51:                                               ; preds = %15
  call void @llvm.lifetime.end.p0(i64 4, ptr %11) #8
  ret void
}

; Function Attrs: nounwind uwtable
define internal void @WebPUtilClearPic(ptr noundef %0, ptr noundef %1) #0 {
  %3 = alloca ptr, align 8
  %4 = alloca ptr, align 8
  store ptr %0, ptr %3, align 8, !tbaa !51
  store ptr %1, ptr %4, align 8, !tbaa !52
  %5 = load ptr, ptr %4, align 8, !tbaa !52
  %6 = icmp ne ptr %5, null
  br i1 %6, label %7, label %21

7:                                                ; preds = %2
  %8 = load ptr, ptr %3, align 8, !tbaa !51
  %9 = load ptr, ptr %4, align 8, !tbaa !52
  %10 = getelementptr inbounds nuw %struct.FrameRectangle, ptr %9, i32 0, i32 0
  %11 = load i32, ptr %10, align 4, !tbaa !53
  %12 = load ptr, ptr %4, align 8, !tbaa !52
  %13 = getelementptr inbounds nuw %struct.FrameRectangle, ptr %12, i32 0, i32 1
  %14 = load i32, ptr %13, align 4, !tbaa !54
  %15 = load ptr, ptr %4, align 8, !tbaa !52
  %16 = getelementptr inbounds nuw %struct.FrameRectangle, ptr %15, i32 0, i32 2
  %17 = load i32, ptr %16, align 4, !tbaa !55
  %18 = load ptr, ptr %4, align 8, !tbaa !52
  %19 = getelementptr inbounds nuw %struct.FrameRectangle, ptr %18, i32 0, i32 3
  %20 = load i32, ptr %19, align 4, !tbaa !56
  call void @ClearRectangle(ptr noundef %8, i32 noundef %11, i32 noundef %14, i32 noundef %17, i32 noundef %20)
  br label %29

21:                                               ; preds = %2
  %22 = load ptr, ptr %3, align 8, !tbaa !51
  %23 = load ptr, ptr %3, align 8, !tbaa !51
  %24 = getelementptr inbounds nuw %struct.WebPPicture, ptr %23, i32 0, i32 2
  %25 = load i32, ptr %24, align 8, !tbaa !57
  %26 = load ptr, ptr %3, align 8, !tbaa !51
  %27 = getelementptr inbounds nuw %struct.WebPPicture, ptr %26, i32 0, i32 3
  %28 = load i32, ptr %27, align 4, !tbaa !58
  call void @ClearRectangle(ptr noundef %22, i32 noundef 0, i32 noundef 0, i32 noundef %25, i32 noundef %28)
  br label %29

29:                                               ; preds = %21, %7
  ret void
}