; Function Attrs: nofree norecurse nosync nounwind memory(write, argmem: readwrite, inaccessiblemem: none) uwtable
define internal fastcc void @WebPUtilClearPic(ptr noundef nonnull readonly captures(none) %0, ptr noundef readonly captures(address_is_null) %1) unnamed_addr #5 {
  %.not = icmp eq ptr %1, null
  br i1 %.not, label %32, label %3

3:                                                ; preds = %2
  %4 = load i32, ptr %1, align 4, !tbaa !45
  %5 = getelementptr inbounds nuw i8, ptr %1, i64 4
  %6 = load i32, ptr %5, align 4, !tbaa !46
  %7 = getelementptr inbounds nuw i8, ptr %1, i64 8
  %8 = load i32, ptr %7, align 4, !tbaa !47
  %9 = getelementptr inbounds nuw i8, ptr %1, i64 12
  %10 = load i32, ptr %9, align 4, !tbaa !48
  %11 = add nsw i32 %10, %6
  %12 = icmp sgt i32 %10, 0
  br i1 %12, label %.lr.ph18.i, label %ClearRectangle.exit

.lr.ph18.i:                                       ; preds = %3
  %13 = getelementptr inbounds nuw i8, ptr %0, i64 80
  %14 = icmp sgt i32 %8, 0
  br i1 %14, label %.lr.ph.us.preheader.i, label %ClearRectangle.exit

.lr.ph.us.preheader.i:                            ; preds = %.lr.ph18.i
  %15 = add i32 %8, %4
  %16 = getelementptr inbounds nuw i8, ptr %0, i64 72
  %17 = load ptr, ptr %16, align 8, !tbaa !49
  %18 = sext i32 %4 to i64
  %19 = shl nsw i64 %18, 2
  %scevgep.i = getelementptr i8, ptr %17, i64 %19
  %20 = add i32 %4, 1
  %smax.i = tail call i32 @llvm.smax.i32(i32 %15, i32 %20)
  %21 = xor i32 %4, -1
  %22 = add i32 %smax.i, %21
  %23 = zext i32 %22 to i64
  %24 = shl nuw nsw i64 %23, 2
  %25 = add nuw nsw i64 %24, 4
  br label %.lr.ph.us.i

.lr.ph.us.i:                                      ; preds = %.lr.ph.us.i, %.lr.ph.us.preheader.i
  %.01416.us.i = phi i32 [ %30, %.lr.ph.us.i ], [ %6, %.lr.ph.us.preheader.i ]
  %26 = load i32, ptr %13, align 8, !tbaa !50
  %27 = mul nsw i32 %26, %.01416.us.i
  %28 = sext i32 %27 to i64
  %29 = shl nsw i64 %28, 2
  %scevgep21.i = getelementptr i8, ptr %scevgep.i, i64 %29
  tail call void @llvm.memset.p0.i64(ptr noundef nonnull align 4 dereferenceable(1) %scevgep21.i, i8 0, i64 %25, i1 false), !tbaa !16
  %30 = add nsw i32 %.01416.us.i, 1
  %31 = icmp slt i32 %30, %11
  br i1 %31, label %.lr.ph.us.i, label %ClearRectangle.exit, !llvm.loop !51

32:                                               ; preds = %2
  %33 = getelementptr inbounds nuw i8, ptr %0, i64 8
  %34 = load i32, ptr %33, align 8, !tbaa !53
  %35 = getelementptr inbounds nuw i8, ptr %0, i64 12
  %36 = load i32, ptr %35, align 4, !tbaa !54
  %37 = icmp sgt i32 %36, 0
  br i1 %37, label %.lr.ph18.i9, label %ClearRectangle.exit

.lr.ph18.i9:                                      ; preds = %32
  %38 = getelementptr inbounds nuw i8, ptr %0, i64 80
  %39 = icmp sgt i32 %34, 0
  br i1 %39, label %.lr.ph.us.preheader.i10, label %ClearRectangle.exit

.lr.ph.us.preheader.i10:                          ; preds = %.lr.ph18.i9
  %40 = getelementptr inbounds nuw i8, ptr %0, i64 72
  %41 = load ptr, ptr %40, align 8, !tbaa !49
  %42 = add nsw i32 %34, -1
  %43 = zext nneg i32 %42 to i64
  %44 = shl nuw nsw i64 %43, 2
  %45 = add nuw nsw i64 %44, 4
  br label %.lr.ph.us.i13

.lr.ph.us.i13:                                    ; preds = %.lr.ph.us.i13, %.lr.ph.us.preheader.i10
  %.01416.us.i14 = phi i32 [ %50, %.lr.ph.us.i13 ], [ 0, %.lr.ph.us.preheader.i10 ]
  %46 = load i32, ptr %38, align 8, !tbaa !50
  %47 = mul nsw i32 %46, %.01416.us.i14
  %48 = sext i32 %47 to i64
  %49 = shl nsw i64 %48, 2
  %scevgep21.i15 = getelementptr i8, ptr %41, i64 %49
  tail call void @llvm.memset.p0.i64(ptr noundef nonnull align 4 dereferenceable(1) %scevgep21.i15, i8 0, i64 %45, i1 false), !tbaa !16
  %50 = add nuw nsw i32 %.01416.us.i14, 1
  %exitcond.not = icmp eq i32 %50, %36
  br i1 %exitcond.not, label %ClearRectangle.exit, label %.lr.ph.us.i13, !llvm.loop !51

ClearRectangle.exit:                              ; preds = %.lr.ph.us.i, %.lr.ph.us.i13, %.lr.ph18.i9, %32, %.lr.ph18.i, %3
  ret void
}